target datalayout = "e-m:e-p270:32:32-p271:32:32-p272:64:64-i64:64-i128:128-f80:128-n8:16:32:64-S128"
target triple = "x86_64-pc-linux-gnu"

%struct.ShellState = type { ptr, i8, i8, i8, i8, i8, i8, i8, i8, i8, i8, i8, i8, i8, %struct.ColModeOpts, i32, i32, i32, i32, i32, i32, i32, ptr, ptr, ptr, i32, i32, i32, i32, i32, i32, i32, i32, i32, i32, i32, i32, i32, i64, ptr, ptr, [30 x i8], [20 x i8], [20 x i8], [20 x i8], [20 x i8], ptr, ptr, i32, [20 x i8], [4096 x i8], ptr, ptr, [5 x %struct.AuxDb], ptr, ptr, i32, i32, ptr, %struct.EQPGraph, %struct.ExpertInfo }
%struct.ColModeOpts = type { i32, i8, i8 }
%struct.AuxDb = type { ptr, ptr, ptr }
%struct.EQPGraph = type { ptr, ptr, [100 x i8] }
%struct.ExpertInfo = type { ptr, i32 }
%struct.EQPGraphRow = type { i32, i32, ptr, [1 x i8] }

@.str.1397 = private unnamed_addr constant [4 x i8] c"   \00", align 1
@.str.1772 = private unnamed_addr constant [8 x i8] c"%s%s%s\0A\00", align 1
@.str.1773 = private unnamed_addr constant [4 x i8] c"|--\00", align 1
@.str.1774 = private unnamed_addr constant [4 x i8] c"`--\00", align 1
@.str.1775 = private unnamed_addr constant [4 x i8] c"|  \00", align 1

; Function Attrs: nounwind uwtable
define internal ptr @eqp_next_row(ptr noundef %0, i32 noundef %1, ptr noundef %2) #0 {
  %4 = alloca ptr, align 8
  %5 = alloca i32, align 4
  %6 = alloca ptr, align 8
  %7 = alloca ptr, align 8
  store ptr %0, ptr %4, align 8, !tbaa !373
  store i32 %1, ptr %5, align 4, !tbaa !3
  store ptr %2, ptr %6, align 8, !tbaa !1263
  call void @llvm.lifetime.start.p0(i64 8, ptr %7) #14
  %8 = load ptr, ptr %6, align 8, !tbaa !1263
  %9 = icmp ne ptr %8, null
  br i1 %9, label %10, label %14

10:                                               ; preds = %3
  %11 = load ptr, ptr %6, align 8, !tbaa !1263
  %12 = getelementptr inbounds nuw %struct.EQPGraphRow, ptr %11, i32 0, i32 2
  %13 = load ptr, ptr %12, align 8, !tbaa !1267
  br label %19

14:                                               ; preds = %3
  %15 = load ptr, ptr %4, align 8, !tbaa !373
  %16 = getelementptr inbounds nuw %struct.ShellState, ptr %15, i32 0, i32 59
  %17 = getelementptr inbounds nuw %struct.EQPGraph, ptr %16, i32 0, i32 0
  %18 = load ptr, ptr %17, align 8, !tbaa !1269
  br label %19

19:                                               ; preds = %14, %10
  %20 = phi ptr [ %13, %10 ], [ %18, %14 ]
  store ptr %20, ptr %7, align 8, !tbaa !1263
  br label %21

21:                                               ; preds = %32, %19
  %22 = load ptr, ptr %7, align 8, !tbaa !1263
  %23 = icmp ne ptr %22, null
  br i1 %23, label %24, label %30

24:                                               ; preds = %21
  %25 = load ptr, ptr %7, align 8, !tbaa !1263
  %26 = getelementptr inbounds nuw %struct.EQPGraphRow, ptr %25, i32 0, i32 1
  %27 = load i32, ptr %26, align 4, !tbaa !1266
  %28 = load i32, ptr %5, align 4, !tbaa !3
  %29 = icmp ne i32 %27, %28
  br label %30

30:                                               ; preds = %24, %21
  %31 = phi i1 [ false, %21 ], [ %29, %24 ]
  br i1 %31, label %32, label %36

32:                                               ; preds = %30
  %33 = load ptr, ptr %7, align 8, !tbaa !1263
  %34 = getelementptr inbounds nuw %struct.EQPGraphRow, ptr %33, i32 0, i32 2
  %35 = load ptr, ptr %34, align 8, !tbaa !1267
  store ptr %35, ptr %7, align 8, !tbaa !1263
  br label %21, !llvm.loop !1287

36:                                               ; preds = %30
  %37 = load ptr, ptr %7, align 8, !tbaa !1263
  call void @llvm.lifetime.end.p0(i64 8, ptr %7) #14
  ret ptr %37
}

; Function Attrs: nounwind uwtable
define internal void @eqp_render_level(ptr noundef %0, i32 noundef %1) #0 {
  %3 = alloca ptr, align 8
  %4 = alloca i32, align 4
  %5 = alloca ptr, align 8
  %6 = alloca ptr, align 8
  %7 = alloca i64, align 8
  %8 = alloca ptr, align 8
  store ptr %0, ptr %3, align 8, !tbaa !373
  store i32 %1, ptr %4, align 4, !tbaa !3
  call void @llvm.lifetime.start.p0(i64 8, ptr %5) #14
  call void @llvm.lifetime.start.p0(i64 8, ptr %6) #14
  call void @llvm.lifetime.start.p0(i64 8, ptr %7) #14
  %9 = load ptr, ptr %3, align 8, !tbaa !373
  %10 = getelementptr inbounds nuw %struct.ShellState, ptr %9, i32 0, i32 59
  %11 = getelementptr inbounds nuw %struct.EQPGraph, ptr %10, i32 0, i32 2
  %12 = getelementptr inbounds [100 x i8], ptr %11, i64 0, i64 0
  %13 = call i64 @strlen(ptr noundef %12) #15
  store i64 %13, ptr %7, align 8, !tbaa !44
  call void @llvm.lifetime.start.p0(i64 8, ptr %8) #14
  %14 = load ptr, ptr %3, align 8, !tbaa !373
  %15 = load i32, ptr %4, align 4, !tbaa !3
  %16 = call ptr @eqp_next_row(ptr noundef %14, i32 noundef %15, ptr noundef null)
  store ptr %16, ptr %5, align 8, !tbaa !1263
  br label %17

17:                                               ; preds = %61, %2
  %18 = load ptr, ptr %5, align 8, !tbaa !1263
  %19 = icmp ne ptr %18, null
  br i1 %19, label %20, label %63

20:                                               ; preds = %17
  %21 = load ptr, ptr %3, align 8, !tbaa !373
  %22 = load i32, ptr %4, align 4, !tbaa !3
  %23 = load ptr, ptr %5, align 8, !tbaa !1263
  %24 = call ptr @eqp_next_row(ptr noundef %21, i32 noundef %22, ptr noundef %23)
  store ptr %24, ptr %6, align 8, !tbaa !1263
  %25 = load ptr, ptr %5, align 8, !tbaa !1263
  %26 = getelementptr inbounds nuw %struct.EQPGraphRow, ptr %25, i32 0, i32 3
  %27 = getelementptr inbounds [1 x i8], ptr %26, i64 0, i64 0
  store ptr %27, ptr %8, align 8, !tbaa !36
  %28 = load ptr, ptr %3, align 8, !tbaa !373
  %29 = getelementptr inbounds nuw %struct.ShellState, ptr %28, i32 0, i32 23
  %30 = load ptr, ptr %29, align 8, !tbaa !354
  %31 = load ptr, ptr %3, align 8, !tbaa !373
  %32 = getelementptr inbounds nuw %struct.ShellState, ptr %31, i32 0, i32 59
  %33 = getelementptr inbounds nuw %struct.EQPGraph, ptr %32, i32 0, i32 2
  %34 = getelementptr inbounds [100 x i8], ptr %33, i64 0, i64 0
  %35 = load ptr, ptr %6, align 8, !tbaa !1263
  %36 = icmp ne ptr %35, null
  %37 = select i1 %36, ptr @.str.1773, ptr @.str.1774
  %38 = load ptr, ptr %8, align 8, !tbaa !36
  %39 = call i32 (ptr, ptr, ...) @fprintf(ptr noundef %30, ptr noundef @.str.1772, ptr noundef %34, ptr noundef %37, ptr noundef %38) #14
  %40 = load i64, ptr %7, align 8, !tbaa !44
  %41 = icmp slt i64 %40, 93
  br i1 %41, label %42, label %60

42:                                               ; preds = %20
  %43 = load ptr, ptr %3, align 8, !tbaa !373
  %44 = getelementptr inbounds nuw %struct.ShellState, ptr %43, i32 0, i32 59
  %45 = getelementptr inbounds nuw %struct.EQPGraph, ptr %44, i32 0, i32 2
  %46 = load i64, ptr %7, align 8, !tbaa !44
  %47 = getelementptr inbounds [100 x i8], ptr %45, i64 0, i64 %46
  %48 = load ptr, ptr %6, align 8, !tbaa !1263
  %49 = icmp ne ptr %48, null
  %50 = select i1 %49, ptr @.str.1775, ptr @.str.1397
  call void @llvm.memcpy.p0.p0.i64(ptr align 1 %47, ptr align 1 %50, i64 4, i1 false)
  %51 = load ptr, ptr %3, align 8, !tbaa !373
  %52 = load ptr, ptr %5, align 8, !tbaa !1263
  %53 = getelementptr inbounds nuw %struct.EQPGraphRow, ptr %52, i32 0, i32 0
  %54 = load i32, ptr %53, align 8, !tbaa !1264
  call void @eqp_render_level(ptr noundef %51, i32 noundef %54)
  %55 = load ptr, ptr %3, align 8, !tbaa !373
  %56 = getelementptr inbounds nuw %struct.ShellState, ptr %55, i32 0, i32 59
  %57 = getelementptr inbounds nuw %struct.EQPGraph, ptr %56, i32 0, i32 2
  %58 = load i64, ptr %7, align 8, !tbaa !44
  %59 = getelementptr inbounds [100 x i8], ptr %57, i64 0, i64 %58
  store i8 0, ptr %59, align 1, !tbaa !40
  br label %60

60:                                               ; preds = %42, %20
  br label %61

61:                                               ; preds = %60
  %62 = load ptr, ptr %6, align 8, !tbaa !1263
  store ptr %62, ptr %5, align 8, !tbaa !1263
  br label %17, !llvm.loop !1286

63:                                               ; preds = %17
  call void @llvm.lifetime.end.p0(i64 8, ptr %8) #14
  call void @llvm.lifetime.end.p0(i64 8, ptr %7) #14
  call void @llvm.lifetime.end.p0(i64 8, ptr %6) #14
  call void @llvm.lifetime.end.p0(i64 8, ptr %5) #14
  ret void
}