; Function Attrs: nofree nounwind uwtable
define internal fastcc void @eqp_render_level(ptr noundef %0, i32 noundef %1) unnamed_addr #17 {
  %3 = getelementptr inbounds nuw i8, ptr %0, i64 4600
  %4 = tail call i64 @strlen(ptr noundef nonnull dereferenceable(1) %3) #44
  %.fr33 = freeze i64 %4
  %5 = getelementptr inbounds nuw i8, ptr %0, i64 4584
  %.010.i = load ptr, ptr %5, align 8, !tbaa !1159
  %.not811.i = icmp eq ptr %.010.i, null
  br i1 %.not811.i, label %._crit_edge, label %.lr.ph.i

.lr.ph.i:                                         ; preds = %2, %8
  %.012.i = phi ptr [ %.0.i, %8 ], [ %.010.i, %2 ]
  %6 = getelementptr inbounds nuw i8, ptr %.012.i, i64 4
  %7 = load i32, ptr %6, align 4, !tbaa !620
  %.not9.i = icmp eq i32 %7, %1
  br i1 %.not9.i, label %.lr.ph, label %8

8:                                                ; preds = %.lr.ph.i
  %9 = getelementptr inbounds nuw i8, ptr %.012.i, i64 8
  %.0.i = load ptr, ptr %9, align 8, !tbaa !1159
  %.not8.i = icmp eq ptr %.0.i, null
  br i1 %.not8.i, label %._crit_edge, label %.lr.ph.i, !llvm.loop !1160

.lr.ph:                                           ; preds = %.lr.ph.i
  %10 = getelementptr inbounds nuw i8, ptr %0, i64 72
  %11 = icmp slt i64 %.fr33, 93
  %12 = getelementptr inbounds [100 x i8], ptr %3, i64 0, i64 %.fr33
  br i1 %11, label %.lr.ph.split.us, label %.lr.ph.split

.lr.ph.split.us:                                  ; preds = %.lr.ph, %eqp_next_row.exit30.us
  %.032.us = phi ptr [ %.0.lcssa.i29.us, %eqp_next_row.exit30.us ], [ %.012.i, %.lr.ph ]
  %13 = getelementptr inbounds nuw i8, ptr %.032.us, i64 8
  %.010.i22.us = load ptr, ptr %13, align 8, !tbaa !1159
  %.not811.i23.us = icmp eq ptr %.010.i22.us, null
  br i1 %.not811.i23.us, label %eqp_next_row.exit30.us, label %.lr.ph.i24.us

.lr.ph.i24.us:                                    ; preds = %.lr.ph.split.us, %16
  %.012.i25.us = phi ptr [ %.0.i27.us, %16 ], [ %.010.i22.us, %.lr.ph.split.us ]
  %14 = getelementptr inbounds nuw i8, ptr %.012.i25.us, i64 4
  %15 = load i32, ptr %14, align 4, !tbaa !620
  %.not9.i26.us = icmp eq i32 %15, %1
  br i1 %.not9.i26.us, label %eqp_next_row.exit30.us, label %16

16:                                               ; preds = %.lr.ph.i24.us
  %17 = getelementptr inbounds nuw i8, ptr %.012.i25.us, i64 8
  %.0.i27.us = load ptr, ptr %17, align 8, !tbaa !1159
  %.not8.i28.us = icmp eq ptr %.0.i27.us, null
  br i1 %.not8.i28.us, label %eqp_next_row.exit30.us, label %.lr.ph.i24.us, !llvm.loop !1160

eqp_next_row.exit30.us:                           ; preds = %.lr.ph.i24.us, %16, %.lr.ph.split.us
  %.0.lcssa.i29.us = phi ptr [ null, %.lr.ph.split.us ], [ %.012.i25.us, %.lr.ph.i24.us ], [ null, %16 ]
  %18 = getelementptr inbounds nuw i8, ptr %.032.us, i64 16
  %19 = load ptr, ptr %10, align 8, !tbaa !462
  %.not21.us = icmp eq ptr %.0.lcssa.i29.us, null
  %20 = select i1 %.not21.us, ptr @.str.1774, ptr @.str.1773
  %21 = tail call i32 (ptr, ptr, ...) @fprintf(ptr noundef %19, ptr noundef nonnull @.str.1772, ptr noundef nonnull %3, ptr noundef nonnull %20, ptr noundef nonnull %18) #43
  %22 = select i1 %.not21.us, i32 2105376, i32 2105468
  store i32 %22, ptr %12, align 1
  %23 = load i32, ptr %.032.us, align 8, !tbaa !618
  tail call fastcc void @eqp_render_level(ptr noundef nonnull %0, i32 noundef %23)
  store i8 0, ptr %12, align 1, !tbaa !25
  br i1 %.not21.us, label %._crit_edge, label %.lr.ph.split.us, !llvm.loop !1161

.lr.ph.split:                                     ; preds = %.lr.ph, %eqp_next_row.exit30
  %.032 = phi ptr [ %.0.lcssa.i29, %eqp_next_row.exit30 ], [ %.012.i, %.lr.ph ]
  %24 = getelementptr inbounds nuw i8, ptr %.032, i64 8
  %.010.i22 = load ptr, ptr %24, align 8, !tbaa !1159
  %.not811.i23 = icmp eq ptr %.010.i22, null
  br i1 %.not811.i23, label %eqp_next_row.exit30, label %.lr.ph.i24

.lr.ph.i24:                                       ; preds = %.lr.ph.split, %27
  %.012.i25 = phi ptr [ %.0.i27, %27 ], [ %.010.i22, %.lr.ph.split ]
  %25 = getelementptr inbounds nuw i8, ptr %.012.i25, i64 4
  %26 = load i32, ptr %25, align 4, !tbaa !620
  %.not9.i26 = icmp eq i32 %26, %1
  br i1 %.not9.i26, label %eqp_next_row.exit30, label %27

27:                                               ; preds = %.lr.ph.i24
  %28 = getelementptr inbounds nuw i8, ptr %.012.i25, i64 8
  %.0.i27 = load ptr, ptr %28, align 8, !tbaa !1159
  %.not8.i28 = icmp eq ptr %.0.i27, null
  br i1 %.not8.i28, label %eqp_next_row.exit30, label %.lr.ph.i24, !llvm.loop !1160

eqp_next_row.exit30:                              ; preds = %.lr.ph.i24, %27, %.lr.ph.split
  %.0.lcssa.i29 = phi ptr [ null, %.lr.ph.split ], [ %.012.i25, %.lr.ph.i24 ], [ null, %27 ]
  %29 = getelementptr inbounds nuw i8, ptr %.032, i64 16
  %30 = load ptr, ptr %10, align 8, !tbaa !462
  %.not21 = icmp eq ptr %.0.lcssa.i29, null
  %31 = select i1 %.not21, ptr @.str.1774, ptr @.str.1773
  %32 = tail call i32 (ptr, ptr, ...) @fprintf(ptr noundef %30, ptr noundef nonnull @.str.1772, ptr noundef nonnull %3, ptr noundef nonnull %31, ptr noundef nonnull %29) #43
  br i1 %.not21, label %._crit_edge, label %.lr.ph.split, !llvm.loop !1161

._crit_edge:                                      ; preds = %8, %eqp_next_row.exit30, %eqp_next_row.exit30.us, %2
  ret void
}